(lp0
S'poi'
p1
aS'salary'
p2
aS'total_stock_value'
p3
aS'bonus'
p4
aS'total_payments'
p5
aS'loan_advances'
p6
aS'expenses'
p7
aS'long_term_incentive'
p8
aS'exercised_stock_options'
p9
aS'to_poi_rate'
p10
aS'from_poi_rate'
p11
a.